; ModuleID = '7/1100.c'
source_filename = "7/1100.c"
target datalayout = "e-m:e-p270:32:32-p271:32:32-p272:64:64-i64:64-f80:128-n8:16:32:64-S128"
target triple = "x86_64-pc-linux-gnu"

@.str = private unnamed_addr constant [3 x i8] c"%s\00", align 1

; Function Attrs: noinline nounwind uwtable
define dso_local void @main() #0 {
  %1 = alloca i32, align 4
  %2 = alloca i32, align 4
  %3 = alloca i32, align 4
  %4 = alloca [256 x i8], align 16
  %5 = alloca [256 x i8], align 16
  %6 = alloca [256 x i8], align 16
  %7 = bitcast [256 x i8]* %4 to i8*
  call void @llvm.memset.p0i8.i64(i8* align 16 %7, i8 0, i64 256, i1 false)
  %8 = bitcast [256 x i8]* %5 to i8*
  call void @llvm.memset.p0i8.i64(i8* align 16 %8, i8 0, i64 256, i1 false)
  %9 = bitcast [256 x i8]* %6 to i8*
  call void @llvm.memset.p0i8.i64(i8* align 16 %9, i8 0, i64 256, i1 false)
  %10 = getelementptr inbounds [256 x i8], [256 x i8]* %4, i64 0, i64 0
  %11 = call i32 (i8*, ...) @__isoc99_scanf(i8* getelementptr inbounds ([3 x i8], [3 x i8]* @.str, i64 0, i64 0), i8* %10)
  %12 = getelementptr inbounds [256 x i8], [256 x i8]* %5, i64 0, i64 0
  %13 = call i32 (i8*, ...) @__isoc99_scanf(i8* getelementptr inbounds ([3 x i8], [3 x i8]* @.str, i64 0, i64 0), i8* %12)
  %14 = getelementptr inbounds [256 x i8], [256 x i8]* %6, i64 0, i64 0
  %15 = call i32 (i8*, ...) @__isoc99_scanf(i8* getelementptr inbounds ([3 x i8], [3 x i8]* @.str, i64 0, i64 0), i8* %14)
  store i32 0, i32* %1, align 4
  br label %16

16:                                               ; preds = %69, %0
  %17 = load i32, i32* %1, align 4
  %18 = sext i32 %17 to i64
  %19 = getelementptr inbounds [256 x i8], [256 x i8]* %4, i64 0, i64 0
  %20 = call i64 @strlen(i8* %19) #4
  %21 = icmp ult i64 %18, %20
  br i1 %21, label %22, label %72

22:                                               ; preds = %16
  store i32 0, i32* %3, align 4
  %23 = getelementptr inbounds [256 x i8], [256 x i8]* %5, i64 0, i64 0
  %24 = load i8, i8* %23, align 16
  %25 = sext i8 %24 to i32
  %26 = load i32, i32* %1, align 4
  %27 = sext i32 %26 to i64
  %28 = getelementptr inbounds [256 x i8], [256 x i8]* %4, i64 0, i64 %27
  %29 = load i8, i8* %28, align 1
  %30 = sext i8 %29 to i32
  %31 = icmp eq i32 %25, %30
  br i1 %31, label %32, label %61

32:                                               ; preds = %22
  store i32 0, i32* %2, align 4
  br label %33

33:                                               ; preds = %57, %32
  %34 = load i32, i32* %2, align 4
  %35 = sext i32 %34 to i64
  %36 = getelementptr inbounds [256 x i8], [256 x i8]* %5, i64 0, i64 0
  %37 = call i64 @strlen(i8* %36) #4
  %38 = icmp ult i64 %35, %37
  br i1 %38, label %39, label %60

39:                                               ; preds = %33
  %40 = load i32, i32* %2, align 4
  %41 = sext i32 %40 to i64
  %42 = getelementptr inbounds [256 x i8], [256 x i8]* %5, i64 0, i64 %41
  %43 = load i8, i8* %42, align 1
  %44 = sext i8 %43 to i32
  %45 = load i32, i32* %1, align 4
  %46 = load i32, i32* %2, align 4
  %47 = add nsw i32 %45, %46
  %48 = sext i32 %47 to i64
  %49 = getelementptr inbounds [256 x i8], [256 x i8]* %4, i64 0, i64 %48
  %50 = load i8, i8* %49, align 1
  %51 = sext i8 %50 to i32
  %52 = icmp eq i32 %44, %51
  br i1 %52, label %53, label %56

53:                                               ; preds = %39
  %54 = load i32, i32* %3, align 4
  %55 = add nsw i32 %54, 1
  store i32 %55, i32* %3, align 4
  br label %56

56:                                               ; preds = %53, %39
  br label %57

57:                                               ; preds = %56
  %58 = load i32, i32* %2, align 4
  %59 = add nsw i32 %58, 1
  store i32 %59, i32* %2, align 4
  br label %33

60:                                               ; preds = %33
  br label %61

61:                                               ; preds = %60, %22
  %62 = load i32, i32* %3, align 4
  %63 = sext i32 %62 to i64
  %64 = getelementptr inbounds [256 x i8], [256 x i8]* %5, i64 0, i64 0
  %65 = call i64 @strlen(i8* %64) #4
  %66 = icmp eq i64 %63, %65
  br i1 %66, label %67, label %68

67:                                               ; preds = %61
  br label %72

68:                                               ; preds = %61
  br label %69

69:                                               ; preds = %68
  %70 = load i32, i32* %1, align 4
  %71 = add nsw i32 %70, 1
  store i32 %71, i32* %1, align 4
  br label %16

72:                                               ; preds = %67, %16
  %73 = load i32, i32* %1, align 4
  %74 = sext i32 %73 to i64
  %75 = getelementptr inbounds [256 x i8], [256 x i8]* %4, i64 0, i64 0
  %76 = call i64 @strlen(i8* %75) #4
  %77 = sub i64 %76, 1
  %78 = icmp ult i64 %74, %77
  br i1 %78, label %79, label %100

79:                                               ; preds = %72
  store i32 0, i32* %2, align 4
  br label %80

80:                                               ; preds = %96, %79
  %81 = load i32, i32* %2, align 4
  %82 = sext i32 %81 to i64
  %83 = getelementptr inbounds [256 x i8], [256 x i8]* %5, i64 0, i64 0
  %84 = call i64 @strlen(i8* %83) #4
  %85 = icmp ult i64 %82, %84
  br i1 %85, label %86, label %99

86:                                               ; preds = %80
  %87 = load i32, i32* %2, align 4
  %88 = sext i32 %87 to i64
  %89 = getelementptr inbounds [256 x i8], [256 x i8]* %6, i64 0, i64 %88
  %90 = load i8, i8* %89, align 1
  %91 = load i32, i32* %2, align 4
  %92 = load i32, i32* %1, align 4
  %93 = add nsw i32 %91, %92
  %94 = sext i32 %93 to i64
  %95 = getelementptr inbounds [256 x i8], [256 x i8]* %4, i64 0, i64 %94
  store i8 %90, i8* %95, align 1
  br label %96

96:                                               ; preds = %86
  %97 = load i32, i32* %2, align 4
  %98 = add nsw i32 %97, 1
  store i32 %98, i32* %2, align 4
  br label %80

99:                                               ; preds = %80
  br label %100

100:                                              ; preds = %99, %72
  %101 = getelementptr inbounds [256 x i8], [256 x i8]* %4, i64 0, i64 0
  %102 = call i32 (i8*, ...) @printf(i8* getelementptr inbounds ([3 x i8], [3 x i8]* @.str, i64 0, i64 0), i8* %101)
  ret void
}

; Function Attrs: argmemonly nounwind willreturn
declare void @llvm.memset.p0i8.i64(i8* nocapture writeonly, i8, i64, i1 immarg) #1

declare dso_local i32 @__isoc99_scanf(i8*, ...) #2

; Function Attrs: nounwind readonly
declare dso_local i64 @strlen(i8*) #3

declare dso_local i32 @printf(i8*, ...) #2


!llvm.module.flags = !{!0}
!llvm.ident = !{!1}

!0 = !{i32 1, !"wchar_size", i32 4}
!1 = !{!"clang version 10.0.0-4ubuntu1 "}
